Certificate:
    Data:
        Version: 3 (0x2)
        Serial Number: 3 (0x3)
    Signature Algorithm: sha1WithRSAEncryption
        Issuer: C=cn, ST=shannxi, L=xian, O=hao.com, OU=section, CN=readhelper/emailAddress=hao.li.peng@163.com
        Validity
            Not Before: Dec 31 13:33:06 2016 GMT
            Not After : Dec 31 13:33:06 2021 GMT
        Subject: C=cn, ST=shannxi, L=xian, O=localhost, OU=localhost, CN=localhost/emailAddress=server@163.com
        Subject Public Key Info:
            Public Key Algorithm: rsaEncryption
                Public-Key: (2048 bit)
                Modulus:
                    00:ee:32:de:98:80:af:b3:e7:13:4f:7f:fa:31:73:
                    ca:dc:bd:42:8d:ab:68:42:a6:5e:c7:81:0e:db:4b:
                    8f:c4:cd:b5:8a:52:b0:51:e8:4a:61:3d:e0:43:93:
                    72:71:a6:56:a8:58:87:f9:5d:9f:9d:19:05:4d:e6:
                    0b:85:7a:d2:42:c9:4e:f1:9a:68:fc:22:5f:40:0b:
                    66:f6:60:2c:c0:a3:c5:cb:04:5c:f9:35:6c:72:d8:
                    3e:c1:8d:6f:25:d9:3b:d0:34:9b:c3:65:77:98:95:
                    eb:c6:db:31:f6:ab:9a:54:8d:62:54:d7:76:43:07:
                    5a:ec:72:31:f2:2f:d4:25:6d:1d:4c:ec:b2:a4:4f:
                    a1:f0:b4:7c:8f:a0:c8:4f:fa:1c:9d:0d:41:ff:a2:
                    7e:59:69:ed:0e:ab:a2:1e:4e:27:f1:22:0e:88:ef:
                    f0:d2:d5:6d:47:a1:87:8f:4b:d7:39:b3:f5:75:ef:
                    eb:1f:bb:43:ad:4c:14:3c:0d:43:19:27:28:ed:08:
                    40:ad:3d:3b:95:95:f6:af:bc:3e:22:28:4a:78:45:
                    ec:47:bc:63:41:4a:89:55:21:4d:f8:93:4d:d0:56:
                    21:85:74:c6:17:5b:3f:e1:07:0b:b8:bf:ac:a5:7b:
                    32:dc:8d:d2:a3:e7:77:15:c0:3b:22:48:a6:8e:62:
                    70:af
                Exponent: 65537 (0x10001)
        X509v3 extensions:
            X509v3 Basic Constraints: 
                CA:FALSE
            Netscape Comment: 
                OpenSSL Generated Certificate
            X509v3 Subject Key Identifier: 
                39:A8:72:C9:26:BA:34:91:6F:14:15:AE:EC:52:FC:84:79:40:74:4A
            X509v3 Authority Key Identifier: 
                keyid:3B:32:B5:8B:E1:D7:E0:DC:3C:3D:77:FA:A4:0E:D5:E8:F5:DF:48:F4

    Signature Algorithm: sha1WithRSAEncryption
         78:92:7e:92:46:b0:c7:b0:c2:17:ee:e3:2d:7e:a9:da:c4:8c:
         fe:4c:f9:ac:a6:73:c5:e4:f1:c2:6a:e7:21:94:00:9b:b3:bf:
         df:59:c2:2e:f3:b2:09:22:ad:8c:bd:4d:84:45:c3:b0:fc:4d:
         4e:4b:79:d1:90:ef:55:1c:69:0c:fd:03:56:b8:ff:41:f7:b4:
         20:05:35:7f:af:20:af:d7:08:96:d4:ae:a4:5e:6f:ee:e1:c4:
         bb:ce:02:2d:c9:dc:aa:71:36:4c:b4:38:80:7d:60:a7:83:26:
         02:d0:9a:7b:fb:07:a3:d5:5a:17:70:91:cf:5f:86:84:94:9f:
         cd:b0
-----BEGIN CERTIFICATE-----
MIIDizCCAvSgAwIBAgIBAzANBgkqhkiG9w0BAQUFADCBizELMAkGA1UEBhMCY24x
EDAOBgNVBAgMB3NoYW5ueGkxDTALBgNVBAcMBHhpYW4xEDAOBgNVBAoMB2hhby5j
b20xEDAOBgNVBAsMB3NlY3Rpb24xEzARBgNVBAMMCnJlYWRoZWxwZXIxIjAgBgkq
hkiG9w0BCQEWE2hhby5saS5wZW5nQDE2My5jb20wHhcNMTYxMjMxMTMzMzA2WhcN
MjExMjMxMTMzMzA2WjCBiTELMAkGA1UEBhMCY24xEDAOBgNVBAgMB3NoYW5ueGkx
DTALBgNVBAcMBHhpYW4xEjAQBgNVBAoMCWxvY2FsaG9zdDESMBAGA1UECwwJbG9j
YWxob3N0MRIwEAYDVQQDDAlsb2NhbGhvc3QxHTAbBgkqhkiG9w0BCQEWDnNlcnZl
ckAxNjMuY29tMIIBIjANBgkqhkiG9w0BAQEFAAOCAQ8AMIIBCgKCAQEA7jLemICv
s+cTT3/6MXPK3L1CjatoQqZex4EO20uPxM21ilKwUehKYT3gQ5NycaZWqFiH+V2f
nRkFTeYLhXrSQslO8Zpo/CJfQAtm9mAswKPFywRc+TVsctg+wY1vJdk70DSbw2V3
mJXrxtsx9quaVI1iVNd2Qwda7HIx8i/UJW0dTOyypE+h8LR8j6DIT/ocnQ1B/6J+
WWntDquiHk4n8SIOiO/w0tVtR6GHj0vXObP1de/rH7tDrUwUPA1DGSco7QhArT07
lZX2r7w+IihKeEXsR7xjQUqJVSFN+JNN0FYhhXTGF1s/4QcLuL+spXsy3I3So+d3
FcA7IkimjmJwrwIDAQABo3sweTAJBgNVHRMEAjAAMCwGCWCGSAGG+EIBDQQfFh1P
cGVuU1NMIEdlbmVyYXRlZCBDZXJ0aWZpY2F0ZTAdBgNVHQ4EFgQUOahyySa6NJFv
FBWu7FL8hHlAdEowHwYDVR0jBBgwFoAUOzK1i+HX4Nw8PXf6pA7V6PXfSPQwDQYJ
KoZIhvcNAQEFBQADgYEAeJJ+kkawx7DCF+7jLX6p2sSM/kz5rKZzxeTxwmrnIZQA
m7O/31nCLvOyCSKtjL1NhEXDsPxNTkt50ZDvVRxpDP0DVrj/Qfe0IAU1f68gr9cI
ltSupF5v7uHEu84CLcncqnE2TLQ4gH1gp4MmAtCae/sHo9VaF3CRz1+GhJSfzbA=
-----END CERTIFICATE-----
